target datalayout = "e-m:e-p270:32:32-p271:32:32-p272:64:64-i64:64-i128:128-f80:128-n8:16:32:64-S128"
target triple = "x86_64-unknown-linux-gnu"

%"class.std::shared_ptr" = type { %"class.std::__shared_ptr" }
%"class.std::__shared_ptr" = type { ptr, %"class.std::__shared_count" }
%"class.std::__shared_count" = type { ptr }
%"class.std::shared_ptr.18" = type { %"class.std::__shared_ptr.19" }
%"class.std::__shared_ptr.19" = type { ptr, %"class.std::__shared_count" }
%"class.std::shared_ptr.21" = type { %"class.std::__shared_ptr.22" }
%"class.std::__shared_ptr.22" = type { ptr, %"class.std::__shared_count" }

; Function Attrs: mustprogress nounwind uwtable
define linkonce_odr hidden void @_ZNSt14__shared_countILN9__gnu_cxx12_Lock_policyE2EE7_M_swapERS2_(ptr noundef nonnull align 8 dereferenceable(8) %this, ptr noundef nonnull align 8 dereferenceable(8) %__r) #6 comdat align 2 {
entry:
  %this.addr = alloca ptr, align 8
  %__r.addr = alloca ptr, align 8
  %__tmp = alloca ptr, align 8
  store ptr %this, ptr %this.addr, align 8
  store ptr %__r, ptr %__r.addr, align 8
  %this1 = load ptr, ptr %this.addr, align 8
  %0 = load ptr, ptr %__r.addr, align 8
  %_M_pi = getelementptr inbounds %"class.std::__shared_count", ptr %0, i32 0, i32 0
  %1 = load ptr, ptr %_M_pi, align 8
  store ptr %1, ptr %__tmp, align 8
  %_M_pi2 = getelementptr inbounds %"class.std::__shared_count", ptr %this1, i32 0, i32 0
  %2 = load ptr, ptr %_M_pi2, align 8
  %3 = load ptr, ptr %__r.addr, align 8
  %_M_pi3 = getelementptr inbounds %"class.std::__shared_count", ptr %3, i32 0, i32 0
  store ptr %2, ptr %_M_pi3, align 8
  %4 = load ptr, ptr %__tmp, align 8
  %_M_pi4 = getelementptr inbounds %"class.std::__shared_count", ptr %this1, i32 0, i32 0
  store ptr %4, ptr %_M_pi4, align 8
  ret void
}

; Function Attrs: mustprogress nounwind uwtable
define linkonce_odr hidden void @_ZNSt14__shared_countILN9__gnu_cxx12_Lock_policyE2EEC2Ev(ptr noundef nonnull align 8 dereferenceable(8) %this) unnamed_addr #6 comdat align 2 {
entry:
  %this.addr = alloca ptr, align 8
  store ptr %this, ptr %this.addr, align 8
  %this1 = load ptr, ptr %this.addr, align 8
  %_M_pi = getelementptr inbounds %"class.std::__shared_count", ptr %this1, i32 0, i32 0
  store ptr null, ptr %_M_pi, align 8
  ret void
}

; Function Attrs: mustprogress nounwind uwtable
define internal void @_ZNSt12__shared_ptrIN19OpenColorIO_v2_4dev2OpELN9__gnu_cxx12_Lock_policyE2EEC2INS0_12_GLOBAL__N_114MatrixOffsetOpEvEEOS_IT_LS3_2EE(ptr noundef nonnull align 8 dereferenceable(16) %this, ptr noundef nonnull align 8 dereferenceable(16) %__r) unnamed_addr #6 align 2 {
entry:
  %this.addr = alloca ptr, align 8
  %__r.addr = alloca ptr, align 8
  store ptr %this, ptr %this.addr, align 8
  store ptr %__r, ptr %__r.addr, align 8
  %this1 = load ptr, ptr %this.addr, align 8
  %_M_ptr = getelementptr inbounds %"class.std::__shared_ptr.19", ptr %this1, i32 0, i32 0
  %0 = load ptr, ptr %__r.addr, align 8
  %_M_ptr2 = getelementptr inbounds %"class.std::__shared_ptr.22", ptr %0, i32 0, i32 0
  %1 = load ptr, ptr %_M_ptr2, align 8
  store ptr %1, ptr %_M_ptr, align 8
  %_M_refcount = getelementptr inbounds %"class.std::__shared_ptr.19", ptr %this1, i32 0, i32 1
  call void @_ZNSt14__shared_countILN9__gnu_cxx12_Lock_policyE2EEC2Ev(ptr noundef nonnull align 8 dereferenceable(8) %_M_refcount) #3
  %_M_refcount3 = getelementptr inbounds %"class.std::__shared_ptr.19", ptr %this1, i32 0, i32 1
  %2 = load ptr, ptr %__r.addr, align 8
  %_M_refcount4 = getelementptr inbounds %"class.std::__shared_ptr.22", ptr %2, i32 0, i32 1
  call void @_ZNSt14__shared_countILN9__gnu_cxx12_Lock_policyE2EE7_M_swapERS2_(ptr noundef nonnull align 8 dereferenceable(8) %_M_refcount3, ptr noundef nonnull align 8 dereferenceable(8) %_M_refcount4) #3
  %3 = load ptr, ptr %__r.addr, align 8
  %_M_ptr5 = getelementptr inbounds %"class.std::__shared_ptr.22", ptr %3, i32 0, i32 0
  store ptr null, ptr %_M_ptr5, align 8
  ret void
}

; Function Attrs: mustprogress nounwind uwtable
define internal void @_ZNSt10shared_ptrIN19OpenColorIO_v2_4dev2OpEEC2INS0_12_GLOBAL__N_114MatrixOffsetOpEvEEOS_IT_E(ptr noundef nonnull align 8 dereferenceable(16) %this, ptr noundef nonnull align 8 dereferenceable(16) %__r) unnamed_addr #6 align 2 {
entry:
  %this.addr = alloca ptr, align 8
  %__r.addr = alloca ptr, align 8
  store ptr %this, ptr %this.addr, align 8
  store ptr %__r, ptr %__r.addr, align 8
  %this1 = load ptr, ptr %this.addr, align 8
  %0 = load ptr, ptr %__r.addr, align 8
  call void @_ZNSt12__shared_ptrIN19OpenColorIO_v2_4dev2OpELN9__gnu_cxx12_Lock_policyE2EEC2INS0_12_GLOBAL__N_114MatrixOffsetOpEvEEOS_IT_LS3_2EE(ptr noundef nonnull align 8 dereferenceable(16) %this1, ptr noundef nonnull align 8 dereferenceable(16) %0) #3
  ret void
}

; Function Attrs: mustprogress uwtable
define hidden void @_ZN19OpenColorIO_v2_4dev22CreateIdentityMatrixOpERNS_10OpRcPtrVecE(ptr noundef nonnull align 8 dereferenceable(144) %ops) #4 personality ptr @__gxx_personality_v0 {
entry:
  %ops.addr = alloca ptr, align 8
  %mat = alloca %"class.std::shared_ptr", align 8
  %ref.tmp = alloca %"class.std::shared_ptr.18", align 8
  %ref.tmp1 = alloca %"class.std::shared_ptr.21", align 8
  %exn.slot = alloca ptr, align 8
  %ehselector.slot = alloca i32, align 4
  store ptr %ops, ptr %ops.addr, align 8
  call void @_ZN19OpenColorIO_v2_4dev12MatrixOpData20CreateDiagonalMatrixEd(ptr sret(%"class.std::shared_ptr") align 8 %mat, double noundef 1.000000e+00)
  %0 = load ptr, ptr %ops.addr, align 8
  invoke void @_ZSt11make_sharedIN19OpenColorIO_v2_4dev12_GLOBAL__N_114MatrixOffsetOpEJRSt10shared_ptrINS0_12MatrixOpDataEEEES3_INSt9enable_ifIXntsr8is_arrayIT_EE5valueES8_E4typeEEDpOT0_(ptr sret(%"class.std::shared_ptr.21") align 8 %ref.tmp1, ptr noundef nonnull align 8 dereferenceable(16) %mat)
          to label %invoke.cont unwind label %lpad

invoke.cont:                                      ; preds = %entry
  call void @_ZNSt10shared_ptrIN19OpenColorIO_v2_4dev2OpEEC2INS0_12_GLOBAL__N_114MatrixOffsetOpEvEEOS_IT_E(ptr noundef nonnull align 8 dereferenceable(16) %ref.tmp, ptr noundef nonnull align 8 dereferenceable(16) %ref.tmp1) #3
  invoke void @_ZN19OpenColorIO_v2_4dev10OpRcPtrVec9push_backERKSt10shared_ptrINS_2OpEE(ptr noundef nonnull align 8 dereferenceable(144) %0, ptr noundef nonnull align 8 dereferenceable(16) %ref.tmp)
          to label %invoke.cont3 unwind label %lpad2

invoke.cont3:                                     ; preds = %invoke.cont
  call void @_ZNSt10shared_ptrIN19OpenColorIO_v2_4dev2OpEED2Ev(ptr noundef nonnull align 8 dereferenceable(16) %ref.tmp) #3
  call void @_ZNSt10shared_ptrIN19OpenColorIO_v2_4dev12_GLOBAL__N_114MatrixOffsetOpEED2Ev(ptr noundef nonnull align 8 dereferenceable(16) %ref.tmp1) #3
  call void @_ZNSt10shared_ptrIN19OpenColorIO_v2_4dev12MatrixOpDataEED2Ev(ptr noundef nonnull align 8 dereferenceable(16) %mat) #3
  ret void

lpad:                                             ; preds = %entry
  %1 = landingpad { ptr, i32 }
          cleanup
  %2 = extractvalue { ptr, i32 } %1, 0
  store ptr %2, ptr %exn.slot, align 8
  %3 = extractvalue { ptr, i32 } %1, 1
  store i32 %3, ptr %ehselector.slot, align 4
  br label %ehcleanup

lpad2:                                            ; preds = %invoke.cont
  %4 = landingpad { ptr, i32 }
          cleanup
  %5 = extractvalue { ptr, i32 } %4, 0
  store ptr %5, ptr %exn.slot, align 8
  %6 = extractvalue { ptr, i32 } %4, 1
  store i32 %6, ptr %ehselector.slot, align 4
  call void @_ZNSt10shared_ptrIN19OpenColorIO_v2_4dev2OpEED2Ev(ptr noundef nonnull align 8 dereferenceable(16) %ref.tmp) #3
  call void @_ZNSt10shared_ptrIN19OpenColorIO_v2_4dev12_GLOBAL__N_114MatrixOffsetOpEED2Ev(ptr noundef nonnull align 8 dereferenceable(16) %ref.tmp1) #3
  br label %ehcleanup

ehcleanup:                                        ; preds = %lpad2, %lpad
  call void @_ZNSt10shared_ptrIN19OpenColorIO_v2_4dev12MatrixOpDataEED2Ev(ptr noundef nonnull align 8 dereferenceable(16) %mat) #3
  br label %eh.resume

eh.resume:                                        ; preds = %ehcleanup
  %exn = load ptr, ptr %exn.slot, align 8
  %sel = load i32, ptr %ehselector.slot, align 4
  %lpad.val = insertvalue { ptr, i32 } poison, ptr %exn, 0
  %lpad.val4 = insertvalue { ptr, i32 } %lpad.val, i32 %sel, 1
  resume { ptr, i32 } %lpad.val4
}