; Function Attrs: mustprogress uwtable
define hidden void @_ZN19OpenColorIO_v2_4dev22CreateIdentityMatrixOpERNS_10OpRcPtrVecE(ptr noundef nonnull align 8 dereferenceable(144) %ops) local_unnamed_addr #3 personality ptr @__gxx_personality_v0 {
entry:
  %mat = alloca %"class.std::shared_ptr", align 8
  %ref.tmp = alloca %"class.std::shared_ptr.18", align 16
  %ref.tmp1 = alloca %"class.std::shared_ptr.21", align 16
  call void @_ZN19OpenColorIO_v2_4dev12MatrixOpData20CreateDiagonalMatrixEd(ptr nonnull sret(%"class.std::shared_ptr") align 8 %mat, double noundef 1.000000e+00)
  %mat.val = load ptr, ptr %mat, align 8
  %0 = getelementptr inbounds i8, ptr %mat, i64 8
  %mat.val3 = load ptr, ptr %0, align 8
  invoke fastcc void @_ZSt11make_sharedIN19OpenColorIO_v2_4dev12_GLOBAL__N_114MatrixOffsetOpEJRSt10shared_ptrINS0_12MatrixOpDataEEEES3_INSt9enable_ifIXntsr8is_arrayIT_EE5valueES8_E4typeEEDpOT0_(ptr noalias nonnull align 8 %ref.tmp1, ptr %mat.val, ptr %mat.val3)
          to label %invoke.cont unwind label %lpad

invoke.cont:                                      ; preds = %entry
  %_M_refcount4.i.i = getelementptr inbounds i8, ptr %ref.tmp1, i64 8
  %1 = load <2 x ptr>, ptr %ref.tmp1, align 16
  store ptr null, ptr %_M_refcount4.i.i, align 8
  store <2 x ptr> %1, ptr %ref.tmp, align 16
  store ptr null, ptr %ref.tmp1, align 16
  invoke void @_ZN19OpenColorIO_v2_4dev10OpRcPtrVec9push_backERKSt10shared_ptrINS_2OpEE(ptr noundef nonnull align 8 dereferenceable(144) %ops, ptr noundef nonnull align 8 dereferenceable(16) %ref.tmp)
          to label %invoke.cont3 unwind label %lpad2

invoke.cont3:                                     ; preds = %invoke.cont
  %_M_refcount.i.i = getelementptr inbounds i8, ptr %ref.tmp, i64 8
  %2 = load ptr, ptr %_M_refcount.i.i, align 8
  %cmp.not.i.i.i = icmp eq ptr %2, null
  br i1 %cmp.not.i.i.i, label %_ZNSt10shared_ptrIN19OpenColorIO_v2_4dev2OpEED2Ev.exit, label %if.then.i.i.i

if.then.i.i.i:                                    ; preds = %invoke.cont3
  %_M_use_count.i.i.i.i = getelementptr inbounds i8, ptr %2, i64 8
  %3 = load atomic i64, ptr %_M_use_count.i.i.i.i acquire, align 8
  %cmp.i.i.i.i = icmp eq i64 %3, 4294967297
  %4 = trunc i64 %3 to i32
  br i1 %cmp.i.i.i.i, label %if.then.i.i.i.i, label %if.end.i.i.i.i

if.then.i.i.i.i:                                  ; preds = %if.then.i.i.i
  store i32 0, ptr %_M_use_count.i.i.i.i, align 8
  %_M_weak_count.i.i.i.i = getelementptr inbounds i8, ptr %2, i64 12
  store i32 0, ptr %_M_weak_count.i.i.i.i, align 4
  %vtable.i.i.i.i = load ptr, ptr %2, align 8
  %vfn.i.i.i.i = getelementptr inbounds i8, ptr %vtable.i.i.i.i, i64 16
  %5 = load ptr, ptr %vfn.i.i.i.i, align 8
  call void %5(ptr noundef nonnull align 8 dereferenceable(16) %2) #20
  br label %if.end8.sink.split.i.i.i.i

if.end.i.i.i.i:                                   ; preds = %if.then.i.i.i
  %6 = load i8, ptr @__libc_single_threaded, align 1
  %tobool.i.not.i.i.i.i = icmp eq i8 %6, 0
  br i1 %tobool.i.not.i.i.i.i, label %if.else.i.i.i.i.i, label %if.then.i.i.i.i.i

if.then.i.i.i.i.i:                                ; preds = %if.end.i.i.i.i
  %add.i.i.i.i.i = add nsw i32 %4, -1
  store i32 %add.i.i.i.i.i, ptr %_M_use_count.i.i.i.i, align 4
  br label %_ZN9__gnu_cxx27__exchange_and_add_dispatchEPii.exit.i.i.i.i

if.else.i.i.i.i.i:                                ; preds = %if.end.i.i.i.i
  %7 = atomicrmw volatile add ptr %_M_use_count.i.i.i.i, i32 -1 acq_rel, align 4
  br label %_ZN9__gnu_cxx27__exchange_and_add_dispatchEPii.exit.i.i.i.i

_ZN9__gnu_cxx27__exchange_and_add_dispatchEPii.exit.i.i.i.i: ; preds = %if.else.i.i.i.i.i, %if.then.i.i.i.i.i
  %retval.i.0.i.i.i.i = phi i32 [ %4, %if.then.i.i.i.i.i ], [ %7, %if.else.i.i.i.i.i ]
  %cmp6.i.i.i.i = icmp eq i32 %retval.i.0.i.i.i.i, 1
  br i1 %cmp6.i.i.i.i, label %if.then7.i.i.i.i, label %_ZNSt10shared_ptrIN19OpenColorIO_v2_4dev2OpEED2Ev.exit

if.then7.i.i.i.i:                                 ; preds = %_ZN9__gnu_cxx27__exchange_and_add_dispatchEPii.exit.i.i.i.i
  %vtable.i.i.i.i.i.i = load ptr, ptr %2, align 8
  %vfn.i.i.i.i.i.i = getelementptr inbounds i8, ptr %vtable.i.i.i.i.i.i, i64 16
  %8 = load ptr, ptr %vfn.i.i.i.i.i.i, align 8
  call void %8(ptr noundef nonnull align 8 dereferenceable(16) %2) #20
  %_M_weak_count.i.i.i.i.i.i = getelementptr inbounds i8, ptr %2, i64 12
  %9 = load i8, ptr @__libc_single_threaded, align 1
  %tobool.i.not.i.i.i.i.i.i = icmp eq i8 %9, 0
  br i1 %tobool.i.not.i.i.i.i.i.i, label %if.else.i.i.i.i.i.i.i, label %if.then.i.i.i.i.i.i.i

if.then.i.i.i.i.i.i.i:                            ; preds = %if.then7.i.i.i.i
  %10 = load i32, ptr %_M_weak_count.i.i.i.i.i.i, align 4
  %add.i.i.i.i.i.i.i = add nsw i32 %10, -1
  store i32 %add.i.i.i.i.i.i.i, ptr %_M_weak_count.i.i.i.i.i.i, align 4
  br label %_ZN9__gnu_cxx27__exchange_and_add_dispatchEPii.exit.i.i.i.i.i.i

if.else.i.i.i.i.i.i.i:                            ; preds = %if.then7.i.i.i.i
  %11 = atomicrmw volatile add ptr %_M_weak_count.i.i.i.i.i.i, i32 -1 acq_rel, align 4
  br label %_ZN9__gnu_cxx27__exchange_and_add_dispatchEPii.exit.i.i.i.i.i.i

_ZN9__gnu_cxx27__exchange_and_add_dispatchEPii.exit.i.i.i.i.i.i: ; preds = %if.else.i.i.i.i.i.i.i, %if.then.i.i.i.i.i.i.i
  %retval.i.0.i.i.i.i.i.i = phi i32 [ %10, %if.then.i.i.i.i.i.i.i ], [ %11, %if.else.i.i.i.i.i.i.i ]
  %cmp.i.i.i.i.i.i = icmp eq i32 %retval.i.0.i.i.i.i.i.i, 1
  br i1 %cmp.i.i.i.i.i.i, label %if.end8.sink.split.i.i.i.i, label %_ZNSt10shared_ptrIN19OpenColorIO_v2_4dev2OpEED2Ev.exit

if.end8.sink.split.i.i.i.i:                       ; preds = %_ZN9__gnu_cxx27__exchange_and_add_dispatchEPii.exit.i.i.i.i.i.i, %if.then.i.i.i.i
  %vtable2.i.i.i.i.i.i = load ptr, ptr %2, align 8
  %vfn3.i.i.i.i.i.i = getelementptr inbounds i8, ptr %vtable2.i.i.i.i.i.i, i64 24
  %12 = load ptr, ptr %vfn3.i.i.i.i.i.i, align 8
  call void %12(ptr noundef nonnull align 8 dereferenceable(16) %2) #20
  br label %_ZNSt10shared_ptrIN19OpenColorIO_v2_4dev2OpEED2Ev.exit

_ZNSt10shared_ptrIN19OpenColorIO_v2_4dev2OpEED2Ev.exit: ; preds = %invoke.cont3, %_ZN9__gnu_cxx27__exchange_and_add_dispatchEPii.exit.i.i.i.i, %_ZN9__gnu_cxx27__exchange_and_add_dispatchEPii.exit.i.i.i.i.i.i, %if.end8.sink.split.i.i.i.i
  %ref.tmp1.val2 = load ptr, ptr %_M_refcount4.i.i, align 8
  %cmp.not.i.i.i5 = icmp eq ptr %ref.tmp1.val2, null
  br i1 %cmp.not.i.i.i5, label %_ZNSt10shared_ptrIN19OpenColorIO_v2_4dev12_GLOBAL__N_114MatrixOffsetOpEED2Ev.exit, label %if.then.i.i.i6

if.then.i.i.i6:                                   ; preds = %_ZNSt10shared_ptrIN19OpenColorIO_v2_4dev2OpEED2Ev.exit
  %_M_use_count.i.i.i.i7 = getelementptr inbounds i8, ptr %ref.tmp1.val2, i64 8
  %13 = load atomic i64, ptr %_M_use_count.i.i.i.i7 acquire, align 8
  %cmp.i.i.i.i8 = icmp eq i64 %13, 4294967297
  %14 = trunc i64 %13 to i32
  br i1 %cmp.i.i.i.i8, label %if.then.i.i.i.i31, label %if.end.i.i.i.i9

if.then.i.i.i.i31:                                ; preds = %if.then.i.i.i6
  store i32 0, ptr %_M_use_count.i.i.i.i7, align 8
  %_M_weak_count.i.i.i.i32 = getelementptr inbounds i8, ptr %ref.tmp1.val2, i64 12
  store i32 0, ptr %_M_weak_count.i.i.i.i32, align 4
  %vtable.i.i.i.i33 = load ptr, ptr %ref.tmp1.val2, align 8
  %vfn.i.i.i.i34 = getelementptr inbounds i8, ptr %vtable.i.i.i.i33, i64 16
  %15 = load ptr, ptr %vfn.i.i.i.i34, align 8
  call void %15(ptr noundef nonnull align 8 dereferenceable(16) %ref.tmp1.val2) #20
  br label %if.end8.sink.split.i.i.i.i26

if.end.i.i.i.i9:                                  ; preds = %if.then.i.i.i6
  %16 = load i8, ptr @__libc_single_threaded, align 1
  %tobool.i.not.i.i.i.i10 = icmp eq i8 %16, 0
  br i1 %tobool.i.not.i.i.i.i10, label %if.else.i.i.i.i.i30, label %if.then.i.i.i.i.i11

if.then.i.i.i.i.i11:                              ; preds = %if.end.i.i.i.i9
  %add.i.i.i.i.i12 = add nsw i32 %14, -1
  store i32 %add.i.i.i.i.i12, ptr %_M_use_count.i.i.i.i7, align 4
  br label %_ZN9__gnu_cxx27__exchange_and_add_dispatchEPii.exit.i.i.i.i13

if.else.i.i.i.i.i30:                              ; preds = %if.end.i.i.i.i9
  %17 = atomicrmw volatile add ptr %_M_use_count.i.i.i.i7, i32 -1 acq_rel, align 4
  br label %_ZN9__gnu_cxx27__exchange_and_add_dispatchEPii.exit.i.i.i.i13

_ZN9__gnu_cxx27__exchange_and_add_dispatchEPii.exit.i.i.i.i13: ; preds = %if.else.i.i.i.i.i30, %if.then.i.i.i.i.i11
  %retval.i.0.i.i.i.i14 = phi i32 [ %14, %if.then.i.i.i.i.i11 ], [ %17, %if.else.i.i.i.i.i30 ]
  %cmp6.i.i.i.i15 = icmp eq i32 %retval.i.0.i.i.i.i14, 1
  br i1 %cmp6.i.i.i.i15, label %if.then7.i.i.i.i16, label %_ZNSt10shared_ptrIN19OpenColorIO_v2_4dev12_GLOBAL__N_114MatrixOffsetOpEED2Ev.exit

if.then7.i.i.i.i16:                               ; preds = %_ZN9__gnu_cxx27__exchange_and_add_dispatchEPii.exit.i.i.i.i13
  %vtable.i.i.i.i.i.i17 = load ptr, ptr %ref.tmp1.val2, align 8
  %vfn.i.i.i.i.i.i18 = getelementptr inbounds i8, ptr %vtable.i.i.i.i.i.i17, i64 16
  %18 = load ptr, ptr %vfn.i.i.i.i.i.i18, align 8
  call void %18(ptr noundef nonnull align 8 dereferenceable(16) %ref.tmp1.val2) #20
  %_M_weak_count.i.i.i.i.i.i19 = getelementptr inbounds i8, ptr %ref.tmp1.val2, i64 12
  %19 = load i8, ptr @__libc_single_threaded, align 1
  %tobool.i.not.i.i.i.i.i.i20 = icmp eq i8 %19, 0
  br i1 %tobool.i.not.i.i.i.i.i.i20, label %if.else.i.i.i.i.i.i.i29, label %if.then.i.i.i.i.i.i.i21

if.then.i.i.i.i.i.i.i21:                          ; preds = %if.then7.i.i.i.i16
  %20 = load i32, ptr %_M_weak_count.i.i.i.i.i.i19, align 4
  %add.i.i.i.i.i.i.i22 = add nsw i32 %20, -1
  store i32 %add.i.i.i.i.i.i.i22, ptr %_M_weak_count.i.i.i.i.i.i19, align 4
  br label %_ZN9__gnu_cxx27__exchange_and_add_dispatchEPii.exit.i.i.i.i.i.i23

if.else.i.i.i.i.i.i.i29:                          ; preds = %if.then7.i.i.i.i16
  %21 = atomicrmw volatile add ptr %_M_weak_count.i.i.i.i.i.i19, i32 -1 acq_rel, align 4
  br label %_ZN9__gnu_cxx27__exchange_and_add_dispatchEPii.exit.i.i.i.i.i.i23

_ZN9__gnu_cxx27__exchange_and_add_dispatchEPii.exit.i.i.i.i.i.i23: ; preds = %if.else.i.i.i.i.i.i.i29, %if.then.i.i.i.i.i.i.i21
  %retval.i.0.i.i.i.i.i.i24 = phi i32 [ %20, %if.then.i.i.i.i.i.i.i21 ], [ %21, %if.else.i.i.i.i.i.i.i29 ]
  %cmp.i.i.i.i.i.i25 = icmp eq i32 %retval.i.0.i.i.i.i.i.i24, 1
  br i1 %cmp.i.i.i.i.i.i25, label %if.end8.sink.split.i.i.i.i26, label %_ZNSt10shared_ptrIN19OpenColorIO_v2_4dev12_GLOBAL__N_114MatrixOffsetOpEED2Ev.exit

if.end8.sink.split.i.i.i.i26:                     ; preds = %_ZN9__gnu_cxx27__exchange_and_add_dispatchEPii.exit.i.i.i.i.i.i23, %if.then.i.i.i.i31
  %vtable2.i.i.i.i.i.i27 = load ptr, ptr %ref.tmp1.val2, align 8
  %vfn3.i.i.i.i.i.i28 = getelementptr inbounds i8, ptr %vtable2.i.i.i.i.i.i27, i64 24
  %22 = load ptr, ptr %vfn3.i.i.i.i.i.i28, align 8
  call void %22(ptr noundef nonnull align 8 dereferenceable(16) %ref.tmp1.val2) #20
  br label %_ZNSt10shared_ptrIN19OpenColorIO_v2_4dev12_GLOBAL__N_114MatrixOffsetOpEED2Ev.exit

_ZNSt10shared_ptrIN19OpenColorIO_v2_4dev12_GLOBAL__N_114MatrixOffsetOpEED2Ev.exit: ; preds = %_ZNSt10shared_ptrIN19OpenColorIO_v2_4dev2OpEED2Ev.exit, %_ZN9__gnu_cxx27__exchange_and_add_dispatchEPii.exit.i.i.i.i13, %_ZN9__gnu_cxx27__exchange_and_add_dispatchEPii.exit.i.i.i.i.i.i23, %if.end8.sink.split.i.i.i.i26
  %23 = load ptr, ptr %0, align 8
  %cmp.not.i.i.i36 = icmp eq ptr %23, null
  br i1 %cmp.not.i.i.i36, label %_ZNSt10shared_ptrIN19OpenColorIO_v2_4dev12MatrixOpDataEED2Ev.exit, label %if.then.i.i.i37

if.then.i.i.i37:                                  ; preds = %_ZNSt10shared_ptrIN19OpenColorIO_v2_4dev12_GLOBAL__N_114MatrixOffsetOpEED2Ev.exit
  %_M_use_count.i.i.i.i38 = getelementptr inbounds i8, ptr %23, i64 8
  %24 = load atomic i64, ptr %_M_use_count.i.i.i.i38 acquire, align 8
  %cmp.i.i.i.i39 = icmp eq i64 %24, 4294967297
  %25 = trunc i64 %24 to i32
  br i1 %cmp.i.i.i.i39, label %if.then.i.i.i.i62, label %if.end.i.i.i.i40

if.then.i.i.i.i62:                                ; preds = %if.then.i.i.i37
  store i32 0, ptr %_M_use_count.i.i.i.i38, align 8
  %_M_weak_count.i.i.i.i63 = getelementptr inbounds i8, ptr %23, i64 12
  store i32 0, ptr %_M_weak_count.i.i.i.i63, align 4
  %vtable.i.i.i.i64 = load ptr, ptr %23, align 8
  %vfn.i.i.i.i65 = getelementptr inbounds i8, ptr %vtable.i.i.i.i64, i64 16
  %26 = load ptr, ptr %vfn.i.i.i.i65, align 8
  call void %26(ptr noundef nonnull align 8 dereferenceable(16) %23) #20
  br label %if.end8.sink.split.i.i.i.i57

if.end.i.i.i.i40:                                 ; preds = %if.then.i.i.i37
  %27 = load i8, ptr @__libc_single_threaded, align 1
  %tobool.i.not.i.i.i.i41 = icmp eq i8 %27, 0
  br i1 %tobool.i.not.i.i.i.i41, label %if.else.i.i.i.i.i61, label %if.then.i.i.i.i.i42

if.then.i.i.i.i.i42:                              ; preds = %if.end.i.i.i.i40
  %add.i.i.i.i.i43 = add nsw i32 %25, -1
  store i32 %add.i.i.i.i.i43, ptr %_M_use_count.i.i.i.i38, align 4
  br label %_ZN9__gnu_cxx27__exchange_and_add_dispatchEPii.exit.i.i.i.i44

if.else.i.i.i.i.i61:                              ; preds = %if.end.i.i.i.i40
  %28 = atomicrmw volatile add ptr %_M_use_count.i.i.i.i38, i32 -1 acq_rel, align 4
  br label %_ZN9__gnu_cxx27__exchange_and_add_dispatchEPii.exit.i.i.i.i44

_ZN9__gnu_cxx27__exchange_and_add_dispatchEPii.exit.i.i.i.i44: ; preds = %if.else.i.i.i.i.i61, %if.then.i.i.i.i.i42
  %retval.i.0.i.i.i.i45 = phi i32 [ %25, %if.then.i.i.i.i.i42 ], [ %28, %if.else.i.i.i.i.i61 ]
  %cmp6.i.i.i.i46 = icmp eq i32 %retval.i.0.i.i.i.i45, 1
  br i1 %cmp6.i.i.i.i46, label %if.then7.i.i.i.i47, label %_ZNSt10shared_ptrIN19OpenColorIO_v2_4dev12MatrixOpDataEED2Ev.exit

if.then7.i.i.i.i47:                               ; preds = %_ZN9__gnu_cxx27__exchange_and_add_dispatchEPii.exit.i.i.i.i44
  %vtable.i.i.i.i.i.i48 = load ptr, ptr %23, align 8
  %vfn.i.i.i.i.i.i49 = getelementptr inbounds i8, ptr %vtable.i.i.i.i.i.i48, i64 16
  %29 = load ptr, ptr %vfn.i.i.i.i.i.i49, align 8
  call void %29(ptr noundef nonnull align 8 dereferenceable(16) %23) #20
  %_M_weak_count.i.i.i.i.i.i50 = getelementptr inbounds i8, ptr %23, i64 12
  %30 = load i8, ptr @__libc_single_threaded, align 1
  %tobool.i.not.i.i.i.i.i.i51 = icmp eq i8 %30, 0
  br i1 %tobool.i.not.i.i.i.i.i.i51, label %if.else.i.i.i.i.i.i.i60, label %if.then.i.i.i.i.i.i.i52

if.then.i.i.i.i.i.i.i52:                          ; preds = %if.then7.i.i.i.i47
  %31 = load i32, ptr %_M_weak_count.i.i.i.i.i.i50, align 4
  %add.i.i.i.i.i.i.i53 = add nsw i32 %31, -1
  store i32 %add.i.i.i.i.i.i.i53, ptr %_M_weak_count.i.i.i.i.i.i50, align 4
  br label %_ZN9__gnu_cxx27__exchange_and_add_dispatchEPii.exit.i.i.i.i.i.i54

if.else.i.i.i.i.i.i.i60:                          ; preds = %if.then7.i.i.i.i47
  %32 = atomicrmw volatile add ptr %_M_weak_count.i.i.i.i.i.i50, i32 -1 acq_rel, align 4
  br label %_ZN9__gnu_cxx27__exchange_and_add_dispatchEPii.exit.i.i.i.i.i.i54

_ZN9__gnu_cxx27__exchange_and_add_dispatchEPii.exit.i.i.i.i.i.i54: ; preds = %if.else.i.i.i.i.i.i.i60, %if.then.i.i.i.i.i.i.i52
  %retval.i.0.i.i.i.i.i.i55 = phi i32 [ %31, %if.then.i.i.i.i.i.i.i52 ], [ %32, %if.else.i.i.i.i.i.i.i60 ]
  %cmp.i.i.i.i.i.i56 = icmp eq i32 %retval.i.0.i.i.i.i.i.i55, 1
  br i1 %cmp.i.i.i.i.i.i56, label %if.end8.sink.split.i.i.i.i57, label %_ZNSt10shared_ptrIN19OpenColorIO_v2_4dev12MatrixOpDataEED2Ev.exit

if.end8.sink.split.i.i.i.i57:                     ; preds = %_ZN9__gnu_cxx27__exchange_and_add_dispatchEPii.exit.i.i.i.i.i.i54, %if.then.i.i.i.i62
  %vtable2.i.i.i.i.i.i58 = load ptr, ptr %23, align 8
  %vfn3.i.i.i.i.i.i59 = getelementptr inbounds i8, ptr %vtable2.i.i.i.i.i.i58, i64 24
  %33 = load ptr, ptr %vfn3.i.i.i.i.i.i59, align 8
  call void %33(ptr noundef nonnull align 8 dereferenceable(16) %23) #20
  br label %_ZNSt10shared_ptrIN19OpenColorIO_v2_4dev12MatrixOpDataEED2Ev.exit

_ZNSt10shared_ptrIN19OpenColorIO_v2_4dev12MatrixOpDataEED2Ev.exit: ; preds = %_ZNSt10shared_ptrIN19OpenColorIO_v2_4dev12_GLOBAL__N_114MatrixOffsetOpEED2Ev.exit, %_ZN9__gnu_cxx27__exchange_and_add_dispatchEPii.exit.i.i.i.i44, %_ZN9__gnu_cxx27__exchange_and_add_dispatchEPii.exit.i.i.i.i.i.i54, %if.end8.sink.split.i.i.i.i57
  ret void

lpad:                                             ; preds = %entry
  %34 = landingpad { ptr, i32 }
          cleanup
  br label %ehcleanup

lpad2:                                            ; preds = %invoke.cont
  %35 = landingpad { ptr, i32 }
          cleanup
  call void @_ZNSt10shared_ptrIN19OpenColorIO_v2_4dev2OpEED2Ev(ptr noundef nonnull align 8 dereferenceable(16) %ref.tmp) #20
  call fastcc void @_ZNSt10shared_ptrIN19OpenColorIO_v2_4dev12_GLOBAL__N_114MatrixOffsetOpEED2Ev(ptr null) #20
  br label %ehcleanup

ehcleanup:                                        ; preds = %lpad2, %lpad
  %.pn = phi { ptr, i32 } [ %35, %lpad2 ], [ %34, %lpad ]
  call void @_ZNSt10shared_ptrIN19OpenColorIO_v2_4dev12MatrixOpDataEED2Ev(ptr noundef nonnull align 8 dereferenceable(16) %mat) #20
  resume { ptr, i32 } %.pn
}